target datalayout = "e-m:e-p270:32:32-p271:32:32-p272:64:64-i64:64-i128:128-f80:128-n8:16:32:64-S128"
target triple = "x86_64-pc-linux-gnu"

%"struct.open3d::core::TensorRef" = type { ptr, i64, i64, [5 x i64], [5 x i64] }
%"class.open3d::core::Indexer" = type <{ i64, i64, [5 x %"struct.open3d::core::TensorRef"], [2 x %"struct.open3d::core::TensorRef"], [5 x i8], [2 x i8], i8, [5 x i64], [5 x i64], i64, i8, i8, [6 x i8] }>

; Function Attrs: mustprogress nounwind ssp uwtable
define noundef i64 @_ZNK6open3d4core7Indexer12NumWorkloadsEv(ptr noundef nonnull align 8 dereferenceable(842) %0) #4 align 2 {
  %2 = alloca ptr, align 8
  %3 = alloca i64, align 8
  %4 = alloca i64, align 8
  store ptr %0, ptr %2, align 8, !tbaa !4
  %5 = load ptr, ptr %2, align 8
  call void @llvm.lifetime.start.p0(i64 8, ptr %3) #27
  store i64 1, ptr %3, align 8, !tbaa !32
  call void @llvm.lifetime.start.p0(i64 8, ptr %4) #27
  store i64 0, ptr %4, align 8, !tbaa !32
  br label %6

6:                                                ; preds = %19, %1
  %7 = load i64, ptr %4, align 8, !tbaa !32
  %8 = getelementptr inbounds nuw %"class.open3d::core::Indexer", ptr %5, i32 0, i32 9
  %9 = load i64, ptr %8, align 8, !tbaa !29
  %10 = icmp slt i64 %7, %9
  br i1 %10, label %12, label %11

11:                                               ; preds = %6
  call void @llvm.lifetime.end.p0(i64 8, ptr %4) #27
  br label %22

12:                                               ; preds = %6
  %13 = getelementptr inbounds nuw %"class.open3d::core::Indexer", ptr %5, i32 0, i32 7
  %14 = load i64, ptr %4, align 8, !tbaa !32
  %15 = getelementptr inbounds [5 x i64], ptr %13, i64 0, i64 %14
  %16 = load i64, ptr %15, align 8, !tbaa !32
  %17 = load i64, ptr %3, align 8, !tbaa !32
  %18 = mul nsw i64 %17, %16
  store i64 %18, ptr %3, align 8, !tbaa !32
  br label %19

19:                                               ; preds = %12
  %20 = load i64, ptr %4, align 8, !tbaa !32
  %21 = add nsw i64 %20, 1
  store i64 %21, ptr %4, align 8, !tbaa !32
  br label %6, !llvm.loop !877

22:                                               ; preds = %11
  %23 = load i64, ptr %3, align 8, !tbaa !32
  call void @llvm.lifetime.end.p0(i64 8, ptr %3) #27
  ret i64 %23
}

; Function Attrs: mustprogress nounwind ssp uwtable
define linkonce_odr noundef i32 @_ZNSt14numeric_limitsIiE3maxEv() #4 comdat align 2 {
  ret i32 2147483647
}

; Function Attrs: mustprogress ssp uwtable
define noundef zeroext i1 @_ZNK6open3d4core7Indexer19CanUse32BitIndexingEv(ptr noundef nonnull align 8 dereferenceable(842) %0) #0 align 2 {
  %2 = alloca i1, align 1
  %3 = alloca ptr, align 8
  %4 = alloca i64, align 8
  %5 = alloca i32, align 4
  %6 = alloca i64, align 8
  %7 = alloca i64, align 8
  %8 = alloca i32, align 4
  %9 = alloca i64, align 8
  %10 = alloca i64, align 8
  %11 = alloca i32, align 4
  store ptr %0, ptr %3, align 8, !tbaa !4
  %12 = load ptr, ptr %3, align 8
  call void @llvm.lifetime.start.p0(i64 8, ptr %4) #27
  %13 = call noundef i32 @_ZNSt14numeric_limitsIiE3maxEv() #27
  %14 = sext i32 %13 to i64
  store i64 %14, ptr %4, align 8, !tbaa !32
  %15 = call noundef i64 @_ZNK6open3d4core7Indexer12NumWorkloadsEv(ptr noundef nonnull align 8 dereferenceable(842) %12)
  %16 = load i64, ptr %4, align 8, !tbaa !32
  %17 = icmp sgt i64 %15, %16
  br i1 %17, label %18, label %19

18:                                               ; preds = %1
  store i1 false, ptr %2, align 1
  store i32 1, ptr %5, align 4
  br label %120

19:                                               ; preds = %1
  call void @llvm.lifetime.start.p0(i64 8, ptr %6) #27
  store i64 0, ptr %6, align 8, !tbaa !32
  br label %20

20:                                               ; preds = %64, %19
  %21 = load i64, ptr %6, align 8, !tbaa !32
  %22 = getelementptr inbounds nuw %"class.open3d::core::Indexer", ptr %12, i32 0, i32 0
  %23 = load i64, ptr %22, align 8, !tbaa !25
  %24 = icmp slt i64 %21, %23
  br i1 %24, label %26, label %25

25:                                               ; preds = %20
  store i32 2, ptr %5, align 4
  br label %67

26:                                               ; preds = %20
  call void @llvm.lifetime.start.p0(i64 8, ptr %7) #27
  store i64 1, ptr %7, align 8, !tbaa !32
  call void @llvm.lifetime.start.p0(i64 4, ptr %8) #27
  store i32 0, ptr %8, align 4, !tbaa !69
  br label %27

27:                                               ; preds = %52, %26
  %28 = load i32, ptr %8, align 4, !tbaa !69
  %29 = sext i32 %28 to i64
  %30 = getelementptr inbounds nuw %"class.open3d::core::Indexer", ptr %12, i32 0, i32 9
  %31 = load i64, ptr %30, align 8, !tbaa !29
  %32 = icmp slt i64 %29, %31
  br i1 %32, label %34, label %33

33:                                               ; preds = %27
  store i32 5, ptr %5, align 4
  call void @llvm.lifetime.end.p0(i64 4, ptr %8) #27
  br label %55

34:                                               ; preds = %27
  %35 = getelementptr inbounds nuw %"class.open3d::core::Indexer", ptr %12, i32 0, i32 7
  %36 = load i32, ptr %8, align 4, !tbaa !69
  %37 = sext i32 %36 to i64
  %38 = getelementptr inbounds [5 x i64], ptr %35, i64 0, i64 %37
  %39 = load i64, ptr %38, align 8, !tbaa !32
  %40 = sub nsw i64 %39, 1
  %41 = getelementptr inbounds nuw %"class.open3d::core::Indexer", ptr %12, i32 0, i32 2
  %42 = load i64, ptr %6, align 8, !tbaa !32
  %43 = getelementptr inbounds [5 x %"struct.open3d::core::TensorRef"], ptr %41, i64 0, i64 %42
  %44 = getelementptr inbounds nuw %"struct.open3d::core::TensorRef", ptr %43, i32 0, i32 4
  %45 = load i32, ptr %8, align 4, !tbaa !69
  %46 = sext i32 %45 to i64
  %47 = getelementptr inbounds [5 x i64], ptr %44, i64 0, i64 %46
  %48 = load i64, ptr %47, align 8, !tbaa !32
  %49 = mul nsw i64 %40, %48
  %50 = load i64, ptr %7, align 8, !tbaa !32
  %51 = add nsw i64 %50, %49
  store i64 %51, ptr %7, align 8, !tbaa !32
  br label %52

52:                                               ; preds = %34
  %53 = load i32, ptr %8, align 4, !tbaa !69
  %54 = add nsw i32 %53, 1
  store i32 %54, ptr %8, align 4, !tbaa !69
  br label %27, !llvm.loop !873

55:                                               ; preds = %33
  %56 = load i64, ptr %7, align 8, !tbaa !32
  %57 = load i64, ptr %4, align 8, !tbaa !32
  %58 = icmp sgt i64 %56, %57
  br i1 %58, label %59, label %60

59:                                               ; preds = %55
  store i1 false, ptr %2, align 1
  store i32 1, ptr %5, align 4
  br label %61

60:                                               ; preds = %55
  store i32 0, ptr %5, align 4
  br label %61

61:                                               ; preds = %60, %59
  call void @llvm.lifetime.end.p0(i64 8, ptr %7) #27
  %62 = load i32, ptr %5, align 4
  switch i32 %62, label %67 [
    i32 0, label %63
  ]

63:                                               ; preds = %61
  br label %64

64:                                               ; preds = %63
  %65 = load i64, ptr %6, align 8, !tbaa !32
  %66 = add nsw i64 %65, 1
  store i64 %66, ptr %6, align 8, !tbaa !32
  br label %20, !llvm.loop !874

67:                                               ; preds = %61, %25
  call void @llvm.lifetime.end.p0(i64 8, ptr %6) #27
  %68 = load i32, ptr %5, align 4
  switch i32 %68, label %120 [
    i32 2, label %69
  ]

69:                                               ; preds = %67
  call void @llvm.lifetime.start.p0(i64 8, ptr %9) #27
  store i64 0, ptr %9, align 8, !tbaa !32
  br label %70

70:                                               ; preds = %114, %69
  %71 = load i64, ptr %9, align 8, !tbaa !32
  %72 = getelementptr inbounds nuw %"class.open3d::core::Indexer", ptr %12, i32 0, i32 1
  %73 = load i64, ptr %72, align 8, !tbaa !28
  %74 = icmp slt i64 %71, %73
  br i1 %74, label %76, label %75

75:                                               ; preds = %70
  store i32 8, ptr %5, align 4
  br label %117

76:                                               ; preds = %70
  call void @llvm.lifetime.start.p0(i64 8, ptr %10) #27
  store i64 1, ptr %10, align 8, !tbaa !32
  call void @llvm.lifetime.start.p0(i64 4, ptr %11) #27
  store i32 0, ptr %11, align 4, !tbaa !69
  br label %77

77:                                               ; preds = %102, %76
  %78 = load i32, ptr %11, align 4, !tbaa !69
  %79 = sext i32 %78 to i64
  %80 = getelementptr inbounds nuw %"class.open3d::core::Indexer", ptr %12, i32 0, i32 9
  %81 = load i64, ptr %80, align 8, !tbaa !29
  %82 = icmp slt i64 %79, %81
  br i1 %82, label %84, label %83

83:                                               ; preds = %77
  store i32 11, ptr %5, align 4
  call void @llvm.lifetime.end.p0(i64 4, ptr %11) #27
  br label %105

84:                                               ; preds = %77
  %85 = getelementptr inbounds nuw %"class.open3d::core::Indexer", ptr %12, i32 0, i32 7
  %86 = load i32, ptr %11, align 4, !tbaa !69
  %87 = sext i32 %86 to i64
  %88 = getelementptr inbounds [5 x i64], ptr %85, i64 0, i64 %87
  %89 = load i64, ptr %88, align 8, !tbaa !32
  %90 = sub nsw i64 %89, 1
  %91 = getelementptr inbounds nuw %"class.open3d::core::Indexer", ptr %12, i32 0, i32 3
  %92 = load i64, ptr %9, align 8, !tbaa !32
  %93 = getelementptr inbounds [2 x %"struct.open3d::core::TensorRef"], ptr %91, i64 0, i64 %92
  %94 = getelementptr inbounds nuw %"struct.open3d::core::TensorRef", ptr %93, i32 0, i32 4
  %95 = load i32, ptr %11, align 4, !tbaa !69
  %96 = sext i32 %95 to i64
  %97 = getelementptr inbounds [5 x i64], ptr %94, i64 0, i64 %96
  %98 = load i64, ptr %97, align 8, !tbaa !32
  %99 = mul nsw i64 %90, %98
  %100 = load i64, ptr %10, align 8, !tbaa !32
  %101 = add nsw i64 %100, %99
  store i64 %101, ptr %10, align 8, !tbaa !32
  br label %102

102:                                              ; preds = %84
  %103 = load i32, ptr %11, align 4, !tbaa !69
  %104 = add nsw i32 %103, 1
  store i32 %104, ptr %11, align 4, !tbaa !69
  br label %77, !llvm.loop !875

105:                                              ; preds = %83
  %106 = load i64, ptr %10, align 8, !tbaa !32
  %107 = load i64, ptr %4, align 8, !tbaa !32
  %108 = icmp sgt i64 %106, %107
  br i1 %108, label %109, label %110

109:                                              ; preds = %105
  store i1 false, ptr %2, align 1
  store i32 1, ptr %5, align 4
  br label %111

110:                                              ; preds = %105
  store i32 0, ptr %5, align 4
  br label %111

111:                                              ; preds = %110, %109
  call void @llvm.lifetime.end.p0(i64 8, ptr %10) #27
  %112 = load i32, ptr %5, align 4
  switch i32 %112, label %117 [
    i32 0, label %113
  ]

113:                                              ; preds = %111
  br label %114

114:                                              ; preds = %113
  %115 = load i64, ptr %9, align 8, !tbaa !32
  %116 = add nsw i64 %115, 1
  store i64 %116, ptr %9, align 8, !tbaa !32
  br label %70, !llvm.loop !876

117:                                              ; preds = %111, %75
  call void @llvm.lifetime.end.p0(i64 8, ptr %9) #27
  %118 = load i32, ptr %5, align 4
  switch i32 %118, label %120 [
    i32 8, label %119
  ]

119:                                              ; preds = %117
  store i1 true, ptr %2, align 1
  store i32 1, ptr %5, align 4
  br label %120

120:                                              ; preds = %119, %117, %67, %18
  call void @llvm.lifetime.end.p0(i64 8, ptr %4) #27
  %121 = load i1, ptr %2, align 1
  ret i1 %121
}