; Function Attrs: mustprogress nofree norecurse nosync nounwind ssp willreturn memory(argmem: read) uwtable
define noundef zeroext i1 @_ZNK6open3d4core7Indexer19CanUse32BitIndexingEv(ptr noundef nonnull readonly align 8 captures(none) dereferenceable(842) %0) local_unnamed_addr #26 align 2 {
  %2 = getelementptr inbounds nuw i8, ptr %0, i64 832
  %3 = load i64, ptr %2, align 8, !tbaa !31
  %4 = icmp sgt i64 %3, 0
  br i1 %4, label %.lr.ph.i, label %.critedge.preheader

.lr.ph.i:                                         ; preds = %1
  %5 = getelementptr inbounds nuw i8, ptr %0, i64 752
  br label %6

6:                                                ; preds = %6, %.lr.ph.i
  %.07.i = phi i64 [ 0, %.lr.ph.i ], [ %10, %6 ]
  %.056.i = phi i64 [ 1, %.lr.ph.i ], [ %9, %6 ]
  %7 = getelementptr inbounds nuw [5 x i64], ptr %5, i64 0, i64 %.07.i
  %8 = load i64, ptr %7, align 8, !tbaa !42
  %9 = mul nsw i64 %8, %.056.i
  %10 = add nuw nsw i64 %.07.i, 1
  %exitcond.not.i = icmp eq i64 %10, %3
  br i1 %exitcond.not.i, label %_ZNK6open3d4core7Indexer12NumWorkloadsEv.exit, label %6, !llvm.loop !713

_ZNK6open3d4core7Indexer12NumWorkloadsEv.exit:    ; preds = %6
  %11 = icmp sgt i64 %9, 2147483647
  br i1 %11, label %.loopexit, label %.preheader47

.preheader47:                                     ; preds = %_ZNK6open3d4core7Indexer12NumWorkloadsEv.exit
  %12 = load i64, ptr %0, align 8, !tbaa !37
  %.not4251 = icmp sgt i64 %12, 0
  br i1 %.not4251, label %.preheader46.lr.ph, label %.critedge.preheader

.preheader46.lr.ph:                               ; preds = %.preheader47
  %13 = getelementptr inbounds nuw i8, ptr %0, i64 752
  %14 = getelementptr inbounds nuw i8, ptr %0, i64 80
  br label %.preheader46.us

.preheader46.us:                                  ; preds = %.preheader46.lr.ph, %24
  %.03352.us = phi i64 [ %25, %24 ], [ 0, %.preheader46.lr.ph ]
  %.idx45.us = mul nuw nsw i64 %.03352.us, 104
  %15 = getelementptr i8, ptr %14, i64 %.idx45.us
  br label %16

16:                                               ; preds = %.preheader46.us, %16
  %indvars.iv = phi i64 [ 0, %.preheader46.us ], [ %indvars.iv.next, %16 ]
  %.03249.us = phi i64 [ 1, %.preheader46.us ], [ %23, %16 ]
  %17 = getelementptr inbounds nuw [5 x i64], ptr %13, i64 0, i64 %indvars.iv
  %18 = load i64, ptr %17, align 8, !tbaa !42
  %19 = add nsw i64 %18, -1
  %20 = getelementptr inbounds nuw [5 x i64], ptr %15, i64 0, i64 %indvars.iv
  %21 = load i64, ptr %20, align 8, !tbaa !42
  %22 = mul nsw i64 %19, %21
  %23 = add nsw i64 %22, %.03249.us
  %indvars.iv.next = add nuw nsw i64 %indvars.iv, 1
  %exitcond.not = icmp eq i64 %indvars.iv.next, %3
  br i1 %exitcond.not, label %._crit_edge.us, label %16, !llvm.loop !714

24:                                               ; preds = %._crit_edge.us
  %25 = add nuw nsw i64 %.03352.us, 1
  %exitcond68.not = icmp eq i64 %25, %12
  br i1 %exitcond68.not, label %.critedge.preheader, label %.preheader46.us, !llvm.loop !715

._crit_edge.us:                                   ; preds = %16
  %.not.us = icmp sgt i64 %23, 2147483647
  br i1 %.not.us, label %.loopexit, label %24

.critedge.preheader:                              ; preds = %24, %1, %.preheader47
  %26 = getelementptr inbounds nuw i8, ptr %0, i64 8
  %27 = load i64, ptr %26, align 8, !tbaa !38
  %.not4455 = icmp slt i64 %27, 1
  br i1 %.not4455, label %.loopexit, label %.preheader.lr.ph

.preheader.lr.ph:                                 ; preds = %.critedge.preheader
  %28 = getelementptr inbounds nuw i8, ptr %0, i64 752
  %29 = getelementptr inbounds nuw i8, ptr %0, i64 600
  br i1 %4, label %.preheader.us, label %.loopexit

.preheader.us:                                    ; preds = %.preheader.lr.ph, %._crit_edge.us59
  %.03056.us = phi i64 [ %39, %._crit_edge.us59 ], [ 0, %.preheader.lr.ph ]
  %.idx.us = mul nuw nsw i64 %.03056.us, 104
  %30 = getelementptr i8, ptr %29, i64 %.idx.us
  br label %31

31:                                               ; preds = %.preheader.us, %31
  %indvars.iv69 = phi i64 [ 0, %.preheader.us ], [ %indvars.iv.next70, %31 ]
  %.02953.us = phi i64 [ 1, %.preheader.us ], [ %38, %31 ]
  %32 = getelementptr inbounds nuw [5 x i64], ptr %28, i64 0, i64 %indvars.iv69
  %33 = load i64, ptr %32, align 8, !tbaa !42
  %34 = add nsw i64 %33, -1
  %35 = getelementptr inbounds nuw [5 x i64], ptr %30, i64 0, i64 %indvars.iv69
  %36 = load i64, ptr %35, align 8, !tbaa !42
  %37 = mul nsw i64 %34, %36
  %38 = add nsw i64 %37, %.02953.us
  %indvars.iv.next70 = add nuw nsw i64 %indvars.iv69, 1
  %exitcond72.not = icmp eq i64 %indvars.iv.next70, %3
  br i1 %exitcond72.not, label %._crit_edge.us59, label %31, !llvm.loop !716

._crit_edge.us59:                                 ; preds = %31
  %.not43.us = icmp slt i64 %38, 2147483648
  %39 = add nuw nsw i64 %.03056.us, 1
  %exitcond73.not = icmp ne i64 %39, %27
  %or.cond.not = select i1 %.not43.us, i1 %exitcond73.not, i1 false
  br i1 %or.cond.not, label %.preheader.us, label %.loopexit, !llvm.loop !717

.loopexit:                                        ; preds = %._crit_edge.us, %._crit_edge.us59, %.preheader.lr.ph, %.critedge.preheader, %_ZNK6open3d4core7Indexer12NumWorkloadsEv.exit
  %.035 = phi i1 [ false, %_ZNK6open3d4core7Indexer12NumWorkloadsEv.exit ], [ true, %.critedge.preheader ], [ true, %.preheader.lr.ph ], [ %.not43.us, %._crit_edge.us59 ], [ false, %._crit_edge.us ]
  ret i1 %.035
}